; ModuleID = '21/57.c'
source_filename = "21/57.c"
target datalayout = "e-m:e-p270:32:32-p271:32:32-p272:64:64-i64:64-f80:128-n8:16:32:64-S128"
target triple = "x86_64-pc-linux-gnu"

@.str = private unnamed_addr constant [3 x i8] c"%d\00", align 1
@.str.1 = private unnamed_addr constant [2 x i8] c",\00", align 1

; Function Attrs: noinline nounwind uwtable
define dso_local void @main() #0 {
  %1 = alloca i32, align 4
  %2 = alloca i32, align 4
  %3 = alloca i32, align 4
  %4 = alloca i32, align 4
  %5 = alloca i32, align 4
  %6 = alloca i32, align 4
  %7 = alloca i32, align 4
  %8 = alloca [301 x i32], align 16
  %9 = alloca [301 x i32], align 16
  store i32 0, i32* %4, align 4
  store i32 0, i32* %5, align 4
  store i32 0, i32* %7, align 4
  %10 = bitcast [301 x i32]* %9 to i8*
  call void @llvm.memset.p0i8.i64(i8* align 16 %10, i8 0, i64 1204, i1 false)
  %11 = call i32 (i8*, ...) @__isoc99_scanf(i8* getelementptr inbounds ([3 x i8], [3 x i8]* @.str, i64 0, i64 0), i32* %1)
  store i32 0, i32* %2, align 4
  br label %12

12:                                               ; preds = %27, %0
  %13 = load i32, i32* %2, align 4
  %14 = load i32, i32* %1, align 4
  %15 = icmp slt i32 %13, %14
  br i1 %15, label %16, label %30

16:                                               ; preds = %12
  %17 = load i32, i32* %2, align 4
  %18 = sext i32 %17 to i64
  %19 = getelementptr inbounds [301 x i32], [301 x i32]* %8, i64 0, i64 %18
  %20 = call i32 (i8*, ...) @__isoc99_scanf(i8* getelementptr inbounds ([3 x i8], [3 x i8]* @.str, i64 0, i64 0), i32* %19)
  %21 = load i32, i32* %2, align 4
  %22 = sext i32 %21 to i64
  %23 = getelementptr inbounds [301 x i32], [301 x i32]* %8, i64 0, i64 %22
  %24 = load i32, i32* %23, align 4
  %25 = load i32, i32* %4, align 4
  %26 = add nsw i32 %25, %24
  store i32 %26, i32* %4, align 4
  br label %27

27:                                               ; preds = %16
  %28 = load i32, i32* %2, align 4
  %29 = add nsw i32 %28, 1
  store i32 %29, i32* %2, align 4
  br label %12

30:                                               ; preds = %12
  store i32 0, i32* %2, align 4
  br label %31

31:                                               ; preds = %47, %30
  %32 = load i32, i32* %2, align 4
  %33 = load i32, i32* %1, align 4
  %34 = icmp slt i32 %32, %33
  br i1 %34, label %35, label %50

35:                                               ; preds = %31
  %36 = load i32, i32* %7, align 4
  %37 = load i32, i32* %2, align 4
  %38 = sext i32 %37 to i64
  %39 = getelementptr inbounds [301 x i32], [301 x i32]* %8, i64 0, i64 %38
  %40 = load i32, i32* %39, align 4
  %41 = load i32, i32* %1, align 4
  %42 = mul nsw i32 %40, %41
  %43 = load i32, i32* %4, align 4
  %44 = sub nsw i32 %42, %43
  %45 = call i32 @abs(i32 %44) #4
  %46 = call i32 (i32, i32, ...) bitcast (i32 (...)* @max to i32 (i32, i32, ...)*)(i32 %36, i32 %45)
  store i32 %46, i32* %7, align 4
  br label %47

47:                                               ; preds = %35
  %48 = load i32, i32* %2, align 4
  %49 = add nsw i32 %48, 1
  store i32 %49, i32* %2, align 4
  br label %31

50:                                               ; preds = %31
  store i32 0, i32* %2, align 4
  br label %51

51:                                               ; preds = %74, %50
  %52 = load i32, i32* %2, align 4
  %53 = load i32, i32* %1, align 4
  %54 = icmp slt i32 %52, %53
  br i1 %54, label %55, label %77

55:                                               ; preds = %51
  %56 = load i32, i32* %2, align 4
  %57 = sext i32 %56 to i64
  %58 = getelementptr inbounds [301 x i32], [301 x i32]* %8, i64 0, i64 %57
  %59 = load i32, i32* %58, align 4
  %60 = load i32, i32* %1, align 4
  %61 = mul nsw i32 %59, %60
  %62 = load i32, i32* %4, align 4
  %63 = sub nsw i32 %61, %62
  %64 = call i32 @abs(i32 %63) #4
  %65 = load i32, i32* %7, align 4
  %66 = icmp eq i32 %64, %65
  br i1 %66, label %67, label %73

67:                                               ; preds = %55
  %68 = load i32, i32* %2, align 4
  %69 = load i32, i32* %5, align 4
  %70 = add nsw i32 %69, 1
  store i32 %70, i32* %5, align 4
  %71 = sext i32 %69 to i64
  %72 = getelementptr inbounds [301 x i32], [301 x i32]* %9, i64 0, i64 %71
  store i32 %68, i32* %72, align 4
  br label %73

73:                                               ; preds = %67, %55
  br label %74

74:                                               ; preds = %73
  %75 = load i32, i32* %2, align 4
  %76 = add nsw i32 %75, 1
  store i32 %76, i32* %2, align 4
  br label %51

77:                                               ; preds = %51
  store i32 0, i32* %2, align 4
  br label %78

78:                                               ; preds = %128, %77
  %79 = load i32, i32* %2, align 4
  %80 = load i32, i32* %5, align 4
  %81 = icmp slt i32 %79, %80
  br i1 %81, label %82, label %131

82:                                               ; preds = %78
  store i32 0, i32* %3, align 4
  br label %83

83:                                               ; preds = %124, %82
  %84 = load i32, i32* %3, align 4
  %85 = load i32, i32* %5, align 4
  %86 = sub nsw i32 %85, 1
  %87 = icmp slt i32 %84, %86
  br i1 %87, label %88, label %127

88:                                               ; preds = %83
  %89 = load i32, i32* %3, align 4
  %90 = sext i32 %89 to i64
  %91 = getelementptr inbounds [301 x i32], [301 x i32]* %9, i64 0, i64 %90
  %92 = load i32, i32* %91, align 4
  %93 = sext i32 %92 to i64
  %94 = getelementptr inbounds [301 x i32], [301 x i32]* %8, i64 0, i64 %93
  %95 = load i32, i32* %94, align 4
  %96 = load i32, i32* %3, align 4
  %97 = add nsw i32 %96, 1
  %98 = sext i32 %97 to i64
  %99 = getelementptr inbounds [301 x i32], [301 x i32]* %9, i64 0, i64 %98
  %100 = load i32, i32* %99, align 4
  %101 = sext i32 %100 to i64
  %102 = getelementptr inbounds [301 x i32], [301 x i32]* %8, i64 0, i64 %101
  %103 = load i32, i32* %102, align 4
  %104 = icmp sgt i32 %95, %103
  br i1 %104, label %105, label %123

105:                                              ; preds = %88
  %106 = load i32, i32* %3, align 4
  %107 = sext i32 %106 to i64
  %108 = getelementptr inbounds [301 x i32], [301 x i32]* %9, i64 0, i64 %107
  %109 = load i32, i32* %108, align 4
  store i32 %109, i32* %6, align 4
  %110 = load i32, i32* %3, align 4
  %111 = add nsw i32 %110, 1
  %112 = sext i32 %111 to i64
  %113 = getelementptr inbounds [301 x i32], [301 x i32]* %9, i64 0, i64 %112
  %114 = load i32, i32* %113, align 4
  %115 = load i32, i32* %3, align 4
  %116 = sext i32 %115 to i64
  %117 = getelementptr inbounds [301 x i32], [301 x i32]* %9, i64 0, i64 %116
  store i32 %114, i32* %117, align 4
  %118 = load i32, i32* %6, align 4
  %119 = load i32, i32* %3, align 4
  %120 = add nsw i32 %119, 1
  %121 = sext i32 %120 to i64
  %122 = getelementptr inbounds [301 x i32], [301 x i32]* %9, i64 0, i64 %121
  store i32 %118, i32* %122, align 4
  br label %123

123:                                              ; preds = %105, %88
  br label %124

124:                                              ; preds = %123
  %125 = load i32, i32* %3, align 4
  %126 = add nsw i32 %125, 1
  store i32 %126, i32* %3, align 4
  br label %83

127:                                              ; preds = %83
  br label %128

128:                                              ; preds = %127
  %129 = load i32, i32* %2, align 4
  %130 = add nsw i32 %129, 1
  store i32 %130, i32* %2, align 4
  br label %78

131:                                              ; preds = %78
  store i32 0, i32* %2, align 4
  br label %132

132:                                              ; preds = %152, %131
  %133 = load i32, i32* %2, align 4
  %134 = load i32, i32* %5, align 4
  %135 = icmp slt i32 %133, %134
  br i1 %135, label %136, label %155

136:                                              ; preds = %132
  %137 = load i32, i32* %2, align 4
  %138 = sext i32 %137 to i64
  %139 = getelementptr inbounds [301 x i32], [301 x i32]* %9, i64 0, i64 %138
  %140 = load i32, i32* %139, align 4
  %141 = sext i32 %140 to i64
  %142 = getelementptr inbounds [301 x i32], [301 x i32]* %8, i64 0, i64 %141
  %143 = load i32, i32* %142, align 4
  %144 = call i32 (i8*, ...) @printf(i8* getelementptr inbounds ([3 x i8], [3 x i8]* @.str, i64 0, i64 0), i32 %143)
  %145 = load i32, i32* %2, align 4
  %146 = load i32, i32* %5, align 4
  %147 = sub nsw i32 %146, 1
  %148 = icmp slt i32 %145, %147
  br i1 %148, label %149, label %151

149:                                              ; preds = %136
  %150 = call i32 (i8*, ...) @printf(i8* getelementptr inbounds ([2 x i8], [2 x i8]* @.str.1, i64 0, i64 0))
  br label %151

151:                                              ; preds = %149, %136
  br label %152

152:                                              ; preds = %151
  %153 = load i32, i32* %2, align 4
  %154 = add nsw i32 %153, 1
  store i32 %154, i32* %2, align 4
  br label %132

155:                                              ; preds = %132
  %156 = call i32 @putchar(i32 10)
  ret void
}

; Function Attrs: argmemonly nounwind willreturn
declare void @llvm.memset.p0i8.i64(i8* nocapture writeonly, i8, i64, i1 immarg) #1

declare dso_local i32 @__isoc99_scanf(i8*, ...) #2

declare dso_local i32 @max(...) #2

; Function Attrs: nounwind readnone
declare dso_local i32 @abs(i32) #3

declare dso_local i32 @printf(i8*, ...) #2

declare dso_local i32 @putchar(i32) #2


!llvm.module.flags = !{!0}
!llvm.ident = !{!1}

!0 = !{i32 1, !"wchar_size", i32 4}
!1 = !{!"clang version 10.0.0-4ubuntu1 "}
